; Function Attrs: null_pointer_is_valid sspstrong uwtable
define hidden noundef zeroext i1 @cf_read_record_no_alert(ptr noundef readonly captures(none) %0, ptr noundef readonly captures(none) %1, ptr noundef %2) local_unnamed_addr #1 {
  %4 = alloca i32, align 4
  %5 = alloca ptr, align 8
  call void @llvm.lifetime.start.p0(i64 4, ptr nonnull %4) #23
  call void @llvm.lifetime.start.p0(i64 8, ptr nonnull %5) #23
  %6 = getelementptr inbounds nuw i8, ptr %0, i64 224
  %7 = load ptr, ptr %6, align 8
  %8 = getelementptr inbounds nuw i8, ptr %1, i64 24
  %9 = load i64, ptr %8, align 8
  %10 = call zeroext i1 @wtap_seek_read(ptr noundef %7, i64 noundef %9, ptr noundef %2, ptr noundef nonnull %4, ptr noundef nonnull %5)
  br i1 %10, label %13, label %11

11:                                               ; preds = %3
  %12 = load ptr, ptr %5, align 8
  call void @g_free(ptr noundef %12)
  br label %13

13:                                               ; preds = %3, %11
  call void @llvm.lifetime.end.p0(i64 8, ptr nonnull %5) #23
  call void @llvm.lifetime.end.p0(i64 4, ptr nonnull %4) #23
  ret i1 %10
}